target datalayout = "e-m:e-p270:32:32-p271:32:32-p272:64:64-i64:64-i128:128-f80:128-n8:16:32:64-S128"
target triple = "x86_64-pc-linux-gnu"

%"class.std::__cxx11::basic_string" = type { %"struct.std::__cxx11::basic_string<char>::_Alloc_hider", i64, %union.anon }
%"struct.std::__cxx11::basic_string<char>::_Alloc_hider" = type { ptr }
%union.anon = type { i64, [8 x i8] }
%"class.std::__shared_count" = type { ptr }
%struct.PJconsts = type <{ ptr, ptr, ptr, ptr, ptr, ptr, ptr, ptr, ptr, ptr, ptr, ptr, i32, [4 x i8], ptr, ptr, ptr, ptr, ptr, ptr, ptr, ptr, double, double, double, double, double, double, double, double, double, double, double, double, double, double, double, double, double, double, double, double, double, double, i32, i32, i32, i32, i32, i32, i32, i32, i32, i32, i32, [4 x i8], ptr, ptr, ptr, ptr, ptr, ptr, double, double, double, double, double, double, double, double, double, double, double, i32, [4 x i8], [7 x double], i32, [4 x i8], ptr, ptr, double, double, i32, [4 x i8], %"class.std::shared_ptr.4", i8, [7 x i8], double, i8, [7 x i8], %"class.std::__cxx11::basic_string", %"class.std::__cxx11::basic_string", %"class.std::__cxx11::basic_string", i8, [7 x i8], %"class.std::vector.42", i32, [4 x i8], %"class.std::vector.47", i32, i8, i8, i8, i8 }>
%"class.std::shared_ptr.4" = type { %"class.std::__shared_ptr.5" }
%"class.std::__shared_ptr.5" = type { ptr, %"class.std::__shared_count" }
%"class.std::vector.42" = type { %"struct.std::_Vector_base.43" }
%"struct.std::_Vector_base.43" = type { %"struct.std::_Vector_base<osgeo::proj::operation::GridDescription, std::allocator<osgeo::proj::operation::GridDescription>>::_Vector_impl" }
%"struct.std::_Vector_base<osgeo::proj::operation::GridDescription, std::allocator<osgeo::proj::operation::GridDescription>>::_Vector_impl" = type { %"struct.std::_Vector_base<osgeo::proj::operation::GridDescription, std::allocator<osgeo::proj::operation::GridDescription>>::_Vector_impl_data" }
%"struct.std::_Vector_base<osgeo::proj::operation::GridDescription, std::allocator<osgeo::proj::operation::GridDescription>>::_Vector_impl_data" = type { ptr, ptr, ptr }
%"class.std::vector.47" = type { %"struct.std::_Vector_base.48" }
%"struct.std::_Vector_base.48" = type { %"struct.std::_Vector_base<PJCoordOperation, std::allocator<PJCoordOperation>>::_Vector_impl" }
%"struct.std::_Vector_base<PJCoordOperation, std::allocator<PJCoordOperation>>::_Vector_impl" = type { %"struct.std::_Vector_base<PJCoordOperation, std::allocator<PJCoordOperation>>::_Vector_impl_data" }
%"struct.std::_Vector_base<PJCoordOperation, std::allocator<PJCoordOperation>>::_Vector_impl_data" = type { ptr, ptr, ptr }

@_ZTIN5osgeo4proj4util10BaseObjectE = external constant ptr
@_ZTIN5osgeo4proj3crs3CRSE = external constant ptr
@.str.2 = private unnamed_addr constant [23 x i8] c"missing required input\00", align 1
@_ZTIN5osgeo4proj3crs10DerivedCRSE = external constant ptr
@__FUNCTION__.proj_crs_is_derived = private unnamed_addr constant [20 x i8] c"proj_crs_is_derived\00", align 1
@.str.25 = private unnamed_addr constant [20 x i8] c"Object is not a CRS\00", align 1

; Function Attrs: mustprogress nounwind uwtable
define linkonce_odr noundef ptr @_ZNKSt12__shared_ptrIN5osgeo4proj4util10BaseObjectELN9__gnu_cxx12_Lock_policyE2EE3getEv(ptr noundef nonnull align 8 dereferenceable(16) %0) #0 comdat align 2 {
  %2 = alloca ptr, align 8
  store ptr %0, ptr %2, align 8
  %3 = load ptr, ptr %2, align 8
  %4 = getelementptr inbounds %"class.std::__shared_ptr.5", ptr %3, i32 0, i32 0
  %5 = load ptr, ptr %4, align 8
  ret ptr %5
}

; Function Attrs: mustprogress uwtable
define i32 @proj_crs_is_derived(ptr noundef %0, ptr noundef %1) #2 {
  %3 = alloca i32, align 4
  %4 = alloca ptr, align 8
  %5 = alloca ptr, align 8
  %6 = alloca ptr, align 8
  store ptr %0, ptr %4, align 8
  store ptr %1, ptr %5, align 8
  %7 = load ptr, ptr %5, align 8
  %8 = icmp ne ptr %7, null
  br i1 %8, label %12, label %9

9:                                                ; preds = %2
  %10 = load ptr, ptr %4, align 8
  call void @_Z22proj_context_errno_setP6pj_ctxi(ptr noundef %10, i32 noundef 4097)
  %11 = load ptr, ptr %4, align 8
  call void @_ZL14proj_log_errorP6pj_ctxPKcS2_(ptr noundef %11, ptr noundef @__FUNCTION__.proj_crs_is_derived, ptr noundef @.str.2)
  store i32 0, ptr %3, align 4
  br label %36

12:                                               ; preds = %2
  %13 = load ptr, ptr %5, align 8
  %14 = getelementptr inbounds %struct.PJconsts, ptr %13, i32 0, i32 84
  %15 = call noundef ptr @_ZNKSt12__shared_ptrIN5osgeo4proj4util10BaseObjectELN9__gnu_cxx12_Lock_policyE2EE3getEv(ptr noundef nonnull align 8 dereferenceable(16) %14) #19
  %16 = icmp eq ptr %15, null
  br i1 %16, label %19, label %17

17:                                               ; preds = %12
  %18 = call ptr @__dynamic_cast(ptr %15, ptr @_ZTIN5osgeo4proj4util10BaseObjectE, ptr @_ZTIN5osgeo4proj3crs3CRSE, i64 0) #19
  br label %20

19:                                               ; preds = %12
  br label %20

20:                                               ; preds = %19, %17
  %21 = phi ptr [ %18, %17 ], [ null, %19 ]
  store ptr %21, ptr %6, align 8
  %22 = load ptr, ptr %6, align 8
  %23 = icmp ne ptr %22, null
  br i1 %23, label %26, label %24

24:                                               ; preds = %20
  %25 = load ptr, ptr %4, align 8
  call void @_ZL14proj_log_errorP6pj_ctxPKcS2_(ptr noundef %25, ptr noundef @__FUNCTION__.proj_crs_is_derived, ptr noundef @.str.25)
  store i32 0, ptr %3, align 4
  br label %36

26:                                               ; preds = %20
  %27 = load ptr, ptr %6, align 8
  %28 = icmp eq ptr %27, null
  br i1 %28, label %31, label %29

29:                                               ; preds = %26
  %30 = call ptr @__dynamic_cast(ptr %27, ptr @_ZTIN5osgeo4proj3crs3CRSE, ptr @_ZTIN5osgeo4proj3crs10DerivedCRSE, i64 -1) #19
  br label %32

31:                                               ; preds = %26
  br label %32

32:                                               ; preds = %31, %29
  %33 = phi ptr [ %30, %29 ], [ null, %31 ]
  %34 = icmp ne ptr %33, null
  %35 = zext i1 %34 to i32
  store i32 %35, ptr %3, align 4
  br label %36

36:                                               ; preds = %32, %24, %9
  %37 = load i32, ptr %3, align 4
  ret i32 %37
}