; Function Attrs: mustprogress uwtable
define i32 @proj_crs_is_derived(ptr noundef %0, ptr noundef readonly %1) local_unnamed_addr #2 {
  %.not = icmp eq ptr %1, null
  br i1 %.not, label %3, label %4

3:                                                ; preds = %2
  tail call void @_Z22proj_context_errno_setP6pj_ctxi(ptr noundef %0, i32 noundef 4097)
  tail call fastcc void @_ZL14proj_log_errorP6pj_ctxPKcS2_(ptr noundef %0, ptr noundef nonnull @__FUNCTION__.proj_crs_is_derived, ptr noundef nonnull @.str.2)
  br label %14

4:                                                ; preds = %2
  %5 = getelementptr inbounds i8, ptr %1, i64 640
  %6 = load ptr, ptr %5, align 8
  %7 = icmp eq ptr %6, null
  br i1 %7, label %.thread, label %8

8:                                                ; preds = %4
  %9 = tail call ptr @__dynamic_cast(ptr nonnull %6, ptr nonnull @_ZTIN5osgeo4proj4util10BaseObjectE, ptr nonnull @_ZTIN5osgeo4proj3crs3CRSE, i64 0) #27
  %.not10 = icmp eq ptr %9, null
  br i1 %.not10, label %.thread, label %10

.thread:                                          ; preds = %4, %8
  tail call fastcc void @_ZL14proj_log_errorP6pj_ctxPKcS2_(ptr noundef %0, ptr noundef nonnull @__FUNCTION__.proj_crs_is_derived, ptr noundef nonnull @.str.25)
  br label %14

10:                                               ; preds = %8
  %11 = tail call ptr @__dynamic_cast(ptr nonnull %9, ptr nonnull @_ZTIN5osgeo4proj3crs3CRSE, ptr nonnull @_ZTIN5osgeo4proj3crs10DerivedCRSE, i64 -1) #27
  %12 = icmp ne ptr %11, null
  %13 = zext i1 %12 to i32
  br label %14

14:                                               ; preds = %10, %.thread, %3
  %.0 = phi i32 [ %13, %10 ], [ 0, %.thread ], [ 0, %3 ]
  ret i32 %.0
}